target datalayout = "e-m:e-p270:32:32-p271:32:32-p272:64:64-i64:64-i128:128-f80:128-n8:16:32:64-S128"
target triple = "x86_64-pc-linux-gnu"

@.str = private unnamed_addr constant [3 x i8] c"rb\00", align 1
@.str.1 = private unnamed_addr constant [36 x i8] c"Cannot open file \22%s\22 for reading.\0A\00", align 1

; Function Attrs: nounwind uwtable
define i32 @Abc_FileSize(ptr noundef %0) #0 {
  %2 = alloca i32, align 4
  %3 = alloca ptr, align 8
  %4 = alloca ptr, align 8
  %5 = alloca i32, align 4
  %6 = alloca i32, align 4
  store ptr %0, ptr %3, align 8, !tbaa !8
  call void @llvm.lifetime.start.p0(i64 8, ptr %4) #12
  call void @llvm.lifetime.start.p0(i64 4, ptr %5) #12
  %7 = load ptr, ptr %3, align 8, !tbaa !8
  %8 = call noalias ptr @fopen(ptr noundef %7, ptr noundef @.str)
  store ptr %8, ptr %4, align 8, !tbaa !17
  %9 = load ptr, ptr %4, align 8, !tbaa !17
  %10 = icmp eq ptr %9, null
  br i1 %10, label %11, label %14

11:                                               ; preds = %1
  %12 = load ptr, ptr %3, align 8, !tbaa !8
  %13 = call i32 (ptr, ...) @printf(ptr noundef @.str.1, ptr noundef %12)
  store i32 -1, ptr %2, align 4
  store i32 1, ptr %6, align 4
  br label %23

14:                                               ; preds = %1
  %15 = load ptr, ptr %4, align 8, !tbaa !17
  %16 = call i32 @fseek(ptr noundef %15, i64 noundef 0, i32 noundef 2)
  %17 = load ptr, ptr %4, align 8, !tbaa !17
  %18 = call i64 @ftell(ptr noundef %17)
  %19 = trunc i64 %18 to i32
  store i32 %19, ptr %5, align 4, !tbaa !10
  %20 = load ptr, ptr %4, align 8, !tbaa !17
  %21 = call i32 @fclose(ptr noundef %20)
  %22 = load i32, ptr %5, align 4, !tbaa !10
  store i32 %22, ptr %2, align 4
  store i32 1, ptr %6, align 4
  br label %23

23:                                               ; preds = %14, %11
  call void @llvm.lifetime.end.p0(i64 4, ptr %5) #12
  call void @llvm.lifetime.end.p0(i64 8, ptr %4) #12
  %24 = load i32, ptr %2, align 4
  ret i32 %24
}