; Function Attrs: nofree nounwind uwtable
define noundef i32 @Abc_FileSize(ptr noundef %0) local_unnamed_addr #2 {
  %2 = tail call noalias ptr @fopen(ptr noundef %0, ptr noundef nonnull @.str)
  %3 = icmp eq ptr %2, null
  br i1 %3, label %4, label %6

4:                                                ; preds = %1
  %5 = tail call i32 (ptr, ...) @printf(ptr noundef nonnull dereferenceable(1) @.str.1, ptr noundef %0)
  br label %11

6:                                                ; preds = %1
  %7 = tail call i32 @fseek(ptr noundef nonnull %2, i64 noundef 0, i32 noundef 2)
  %8 = tail call i64 @ftell(ptr noundef nonnull %2)
  %9 = trunc i64 %8 to i32
  %10 = tail call i32 @fclose(ptr noundef nonnull %2)
  br label %11

11:                                               ; preds = %6, %4
  %.0 = phi i32 [ -1, %4 ], [ %9, %6 ]
  ret i32 %.0
}